target datalayout = "e-m:e-p270:32:32-p271:32:32-p272:64:64-i64:64-i128:128-f80:128-n8:16:32:64-S128"
target triple = "x86_64-pc-linux-gnu"

; Function Attrs: nounwind uwtable
define internal i32 @php_filter_parse_hex(ptr noundef %0, i64 noundef %1, ptr noundef %2) #0 {
  %4 = alloca i32, align 4
  %5 = alloca ptr, align 8
  %6 = alloca i64, align 8
  %7 = alloca ptr, align 8
  %8 = alloca i64, align 8
  %9 = alloca ptr, align 8
  %10 = alloca i64, align 8
  store ptr %0, ptr %5, align 8
  store i64 %1, ptr %6, align 8
  store ptr %2, ptr %7, align 8
  store i64 0, ptr %8, align 8
  %11 = load ptr, ptr %5, align 8
  %12 = load i64, ptr %6, align 8
  %13 = getelementptr inbounds i8, ptr %11, i64 %12
  store ptr %13, ptr %9, align 8
  br label %14

14:                                               ; preds = %82, %3
  %15 = load ptr, ptr %5, align 8
  %16 = load ptr, ptr %9, align 8
  %17 = icmp ult ptr %15, %16
  br i1 %17, label %18, label %86

18:                                               ; preds = %14
  %19 = load ptr, ptr %5, align 8
  %20 = load i8, ptr %19, align 1
  %21 = sext i8 %20 to i32
  %22 = icmp sge i32 %21, 48
  br i1 %22, label %23, label %35

23:                                               ; preds = %18
  %24 = load ptr, ptr %5, align 8
  %25 = load i8, ptr %24, align 1
  %26 = sext i8 %25 to i32
  %27 = icmp sle i32 %26, 57
  br i1 %27, label %28, label %35

28:                                               ; preds = %23
  %29 = load ptr, ptr %5, align 8
  %30 = getelementptr inbounds i8, ptr %29, i32 1
  store ptr %30, ptr %5, align 8
  %31 = load i8, ptr %29, align 1
  %32 = sext i8 %31 to i32
  %33 = sub nsw i32 %32, 48
  %34 = sext i32 %33 to i64
  store i64 %34, ptr %10, align 8
  br label %72

35:                                               ; preds = %23, %18
  %36 = load ptr, ptr %5, align 8
  %37 = load i8, ptr %36, align 1
  %38 = sext i8 %37 to i32
  %39 = icmp sge i32 %38, 97
  br i1 %39, label %40, label %52

40:                                               ; preds = %35
  %41 = load ptr, ptr %5, align 8
  %42 = load i8, ptr %41, align 1
  %43 = sext i8 %42 to i32
  %44 = icmp sle i32 %43, 102
  br i1 %44, label %45, label %52

45:                                               ; preds = %40
  %46 = load ptr, ptr %5, align 8
  %47 = getelementptr inbounds i8, ptr %46, i32 1
  store ptr %47, ptr %5, align 8
  %48 = load i8, ptr %46, align 1
  %49 = sext i8 %48 to i32
  %50 = sub nsw i32 %49, 87
  %51 = sext i32 %50 to i64
  store i64 %51, ptr %10, align 8
  br label %71

52:                                               ; preds = %40, %35
  %53 = load ptr, ptr %5, align 8
  %54 = load i8, ptr %53, align 1
  %55 = sext i8 %54 to i32
  %56 = icmp sge i32 %55, 65
  br i1 %56, label %57, label %69

57:                                               ; preds = %52
  %58 = load ptr, ptr %5, align 8
  %59 = load i8, ptr %58, align 1
  %60 = sext i8 %59 to i32
  %61 = icmp sle i32 %60, 70
  br i1 %61, label %62, label %69

62:                                               ; preds = %57
  %63 = load ptr, ptr %5, align 8
  %64 = getelementptr inbounds i8, ptr %63, i32 1
  store ptr %64, ptr %5, align 8
  %65 = load i8, ptr %63, align 1
  %66 = sext i8 %65 to i32
  %67 = sub nsw i32 %66, 55
  %68 = sext i32 %67 to i64
  store i64 %68, ptr %10, align 8
  br label %70

69:                                               ; preds = %57, %52
  store i32 -1, ptr %4, align 4
  br label %89

70:                                               ; preds = %62
  br label %71

71:                                               ; preds = %70, %45
  br label %72

72:                                               ; preds = %71, %28
  %73 = load i64, ptr %8, align 8
  %74 = icmp ugt i64 %73, 1152921504606846975
  br i1 %74, label %81, label %75

75:                                               ; preds = %72
  %76 = load i64, ptr %8, align 8
  %77 = mul i64 %76, 16
  store i64 %77, ptr %8, align 8
  %78 = load i64, ptr %10, align 8
  %79 = sub i64 -1, %78
  %80 = icmp ugt i64 %77, %79
  br i1 %80, label %81, label %82

81:                                               ; preds = %75, %72
  store i32 -1, ptr %4, align 4
  br label %89

82:                                               ; preds = %75
  %83 = load i64, ptr %10, align 8
  %84 = load i64, ptr %8, align 8
  %85 = add i64 %84, %83
  store i64 %85, ptr %8, align 8
  br label %14

86:                                               ; preds = %14
  %87 = load i64, ptr %8, align 8
  %88 = load ptr, ptr %7, align 8
  store i64 %87, ptr %88, align 8
  store i32 1, ptr %4, align 4
  br label %89

89:                                               ; preds = %86, %81, %69
  %90 = load i32, ptr %4, align 4
  ret i32 %90
}