; Function Attrs: nofree norecurse nosync nounwind memory(read, argmem: readwrite, inaccessiblemem: none) uwtable
define internal fastcc noundef i32 @php_filter_parse_hex(ptr noundef readonly %0, i64 noundef %1, ptr nocapture noundef writeonly %2) unnamed_addr #2 {
  %4 = getelementptr inbounds i8, ptr %0, i64 %1
  %5 = icmp sgt i64 %1, 0
  br i1 %5, label %.lr.ph, label %._crit_edge

.lr.ph:                                           ; preds = %3, %16
  %.02133 = phi i64 [ %18, %16 ], [ 0, %3 ]
  %.02232 = phi ptr [ %.1, %16 ], [ %0, %3 ]
  %6 = load i8, ptr %.02232, align 1
  %7 = add i8 %6, -48
  %or.cond = icmp ult i8 %7, 10
  br i1 %or.cond, label %14, label %8

8:                                                ; preds = %.lr.ph
  %9 = add i8 %6, -97
  %or.cond29 = icmp ult i8 %9, 6
  br i1 %or.cond29, label %10, label %11

10:                                               ; preds = %8
  %narrow27 = add nsw i8 %6, -87
  br label %14

11:                                               ; preds = %8
  %12 = add i8 %6, -65
  %or.cond30 = icmp ult i8 %12, 6
  br i1 %or.cond30, label %13, label %.loopexit

13:                                               ; preds = %11
  %narrow = add nsw i8 %6, -55
  br label %14

14:                                               ; preds = %.lr.ph, %10, %13
  %.0.in = phi i8 [ %narrow27, %10 ], [ %narrow, %13 ], [ %7, %.lr.ph ]
  %15 = icmp ugt i64 %.02133, 1152921504606846975
  br i1 %15, label %.loopexit, label %16

16:                                               ; preds = %14
  %.1 = getelementptr inbounds i8, ptr %.02232, i64 1
  %.0 = zext nneg i8 %.0.in to i64
  %17 = shl nuw i64 %.02133, 4
  %18 = add nuw i64 %17, %.0
  %19 = icmp ult ptr %.1, %4
  br i1 %19, label %.lr.ph, label %._crit_edge

._crit_edge:                                      ; preds = %16, %3
  %.021.lcssa = phi i64 [ 0, %3 ], [ %18, %16 ]
  store i64 %.021.lcssa, ptr %2, align 8
  br label %.loopexit

.loopexit:                                        ; preds = %14, %11, %._crit_edge
  %.020 = phi i32 [ 1, %._crit_edge ], [ -1, %11 ], [ -1, %14 ]
  ret i32 %.020
}